; Function Attrs: nounwind uwtable
define internal noundef nonnull ptr @test_atomic_and_or_uint32(ptr readnone captures(none) %0, ptr readnone captures(none) %1) #0 {
  %3 = alloca i32, align 4
  call void @llvm.lifetime.start.p0(i64 4, ptr nonnull %3) #6
  store i32 0, ptr %3, align 4, !tbaa !8
  %4 = atomicrmw or ptr %3, i32 3 seq_cst, align 4
  %5 = icmp eq i32 %4, 0
  br i1 %5, label %7, label %6

6:                                                ; preds = %2
  call void @__assert_fail(ptr noundef nonnull @.str.348, ptr noundef nonnull @.str.65, i32 noundef 121, ptr noundef nonnull @__PRETTY_FUNCTION__.test_atomic_and_or_uint32) #7
  unreachable

7:                                                ; preds = %2
  %8 = load i32, ptr %3, align 4, !tbaa !8
  %9 = icmp eq i32 %8, 3
  br i1 %9, label %11, label %10

10:                                               ; preds = %7
  call void @__assert_fail(ptr noundef nonnull @.str.349, ptr noundef nonnull @.str.65, i32 noundef 121, ptr noundef nonnull @__PRETTY_FUNCTION__.test_atomic_and_or_uint32) #7
  unreachable

11:                                               ; preds = %7
  %12 = atomicrmw and ptr %3, i32 1 seq_cst, align 4
  %13 = icmp eq i32 %12, 3
  br i1 %13, label %15, label %14

14:                                               ; preds = %11
  call void @__assert_fail(ptr noundef nonnull @.str.350, ptr noundef nonnull @.str.65, i32 noundef 121, ptr noundef nonnull @__PRETTY_FUNCTION__.test_atomic_and_or_uint32) #7
  unreachable

15:                                               ; preds = %11
  %16 = load i32, ptr %3, align 4, !tbaa !8
  %17 = icmp eq i32 %16, 1
  br i1 %17, label %19, label %18

18:                                               ; preds = %15
  call void @__assert_fail(ptr noundef nonnull @.str.227, ptr noundef nonnull @.str.65, i32 noundef 121, ptr noundef nonnull @__PRETTY_FUNCTION__.test_atomic_and_or_uint32) #7
  unreachable

19:                                               ; preds = %15
  call void @llvm.lifetime.end.p0(i64 4, ptr nonnull %3) #6
  ret ptr @_Py_NoneStruct
}